; ModuleID = '33/3175.c'
source_filename = "33/3175.c"
target datalayout = "e-m:e-p270:32:32-p271:32:32-p272:64:64-i64:64-f80:128-n8:16:32:64-S128"
target triple = "x86_64-pc-linux-gnu"

@.str = private unnamed_addr constant [4 x i8] c"%d\0A\00", align 1

; Function Attrs: noinline nounwind uwtable
define dso_local i32 @main() #0 {
  %1 = alloca i32, align 4
  %2 = alloca i32, align 4
  %3 = alloca i8*, align 8
  %4 = alloca i64, align 8
  %5 = alloca i32, align 4
  %6 = alloca i32, align 4
  %7 = alloca i32, align 4
  %8 = alloca i32, align 4
  store i32 0, i32* %1, align 4
  %9 = call i32 (i8*, ...) @__isoc99_scanf(i8* getelementptr inbounds ([4 x i8], [4 x i8]* @.str, i64 0, i64 0), i32* %2)
  %10 = load i32, i32* %2, align 4
  %11 = zext i32 %10 to i64
  %12 = call i8* @llvm.stacksave()
  store i8* %12, i8** %3, align 8
  %13 = alloca [256 x i8], i64 %11, align 16
  store i64 %11, i64* %4, align 8
  store i32 0, i32* %5, align 4
  br label %14

14:                                               ; preds = %24, %0
  %15 = load i32, i32* %5, align 4
  %16 = load i32, i32* %2, align 4
  %17 = icmp slt i32 %15, %16
  br i1 %17, label %18, label %27

18:                                               ; preds = %14
  %19 = load i32, i32* %5, align 4
  %20 = sext i32 %19 to i64
  %21 = getelementptr inbounds [256 x i8], [256 x i8]* %13, i64 %20
  %22 = getelementptr inbounds [256 x i8], [256 x i8]* %21, i64 0, i64 0
  %23 = call i32 (i8*, ...) bitcast (i32 (...)* @gets to i32 (i8*, ...)*)(i8* %22)
  br label %24

24:                                               ; preds = %18
  %25 = load i32, i32* %5, align 4
  %26 = add nsw i32 %25, 1
  store i32 %26, i32* %5, align 4
  br label %14

27:                                               ; preds = %14
  store i32 0, i32* %6, align 4
  br label %28

28:                                               ; preds = %119, %27
  %29 = load i32, i32* %6, align 4
  %30 = load i32, i32* %2, align 4
  %31 = icmp slt i32 %29, %30
  br i1 %31, label %32, label %122

32:                                               ; preds = %28
  store i32 0, i32* %7, align 4
  br label %33

33:                                               ; preds = %115, %32
  %34 = load i32, i32* %6, align 4
  %35 = sext i32 %34 to i64
  %36 = getelementptr inbounds [256 x i8], [256 x i8]* %13, i64 %35
  %37 = load i32, i32* %7, align 4
  %38 = sext i32 %37 to i64
  %39 = getelementptr inbounds [256 x i8], [256 x i8]* %36, i64 0, i64 %38
  %40 = load i8, i8* %39, align 1
  %41 = sext i8 %40 to i32
  %42 = icmp ne i32 %41, 0
  br i1 %42, label %43, label %118

43:                                               ; preds = %33
  %44 = load i32, i32* %6, align 4
  %45 = sext i32 %44 to i64
  %46 = getelementptr inbounds [256 x i8], [256 x i8]* %13, i64 %45
  %47 = load i32, i32* %7, align 4
  %48 = sext i32 %47 to i64
  %49 = getelementptr inbounds [256 x i8], [256 x i8]* %46, i64 0, i64 %48
  %50 = load i8, i8* %49, align 1
  %51 = sext i8 %50 to i32
  %52 = icmp eq i32 %51, 65
  br i1 %52, label %53, label %60

53:                                               ; preds = %43
  %54 = load i32, i32* %6, align 4
  %55 = sext i32 %54 to i64
  %56 = getelementptr inbounds [256 x i8], [256 x i8]* %13, i64 %55
  %57 = load i32, i32* %7, align 4
  %58 = sext i32 %57 to i64
  %59 = getelementptr inbounds [256 x i8], [256 x i8]* %56, i64 0, i64 %58
  store i8 84, i8* %59, align 1
  br label %114

60:                                               ; preds = %43
  %61 = load i32, i32* %6, align 4
  %62 = sext i32 %61 to i64
  %63 = getelementptr inbounds [256 x i8], [256 x i8]* %13, i64 %62
  %64 = load i32, i32* %7, align 4
  %65 = sext i32 %64 to i64
  %66 = getelementptr inbounds [256 x i8], [256 x i8]* %63, i64 0, i64 %65
  %67 = load i8, i8* %66, align 1
  %68 = sext i8 %67 to i32
  %69 = icmp eq i32 %68, 84
  br i1 %69, label %70, label %77

70:                                               ; preds = %60
  %71 = load i32, i32* %6, align 4
  %72 = sext i32 %71 to i64
  %73 = getelementptr inbounds [256 x i8], [256 x i8]* %13, i64 %72
  %74 = load i32, i32* %7, align 4
  %75 = sext i32 %74 to i64
  %76 = getelementptr inbounds [256 x i8], [256 x i8]* %73, i64 0, i64 %75
  store i8 65, i8* %76, align 1
  br label %113

77:                                               ; preds = %60
  %78 = load i32, i32* %6, align 4
  %79 = sext i32 %78 to i64
  %80 = getelementptr inbounds [256 x i8], [256 x i8]* %13, i64 %79
  %81 = load i32, i32* %7, align 4
  %82 = sext i32 %81 to i64
  %83 = getelementptr inbounds [256 x i8], [256 x i8]* %80, i64 0, i64 %82
  %84 = load i8, i8* %83, align 1
  %85 = sext i8 %84 to i32
  %86 = icmp eq i32 %85, 67
  br i1 %86, label %87, label %94

87:                                               ; preds = %77
  %88 = load i32, i32* %6, align 4
  %89 = sext i32 %88 to i64
  %90 = getelementptr inbounds [256 x i8], [256 x i8]* %13, i64 %89
  %91 = load i32, i32* %7, align 4
  %92 = sext i32 %91 to i64
  %93 = getelementptr inbounds [256 x i8], [256 x i8]* %90, i64 0, i64 %92
  store i8 71, i8* %93, align 1
  br label %112

94:                                               ; preds = %77
  %95 = load i32, i32* %6, align 4
  %96 = sext i32 %95 to i64
  %97 = getelementptr inbounds [256 x i8], [256 x i8]* %13, i64 %96
  %98 = load i32, i32* %7, align 4
  %99 = sext i32 %98 to i64
  %100 = getelementptr inbounds [256 x i8], [256 x i8]* %97, i64 0, i64 %99
  %101 = load i8, i8* %100, align 1
  %102 = sext i8 %101 to i32
  %103 = icmp eq i32 %102, 71
  br i1 %103, label %104, label %111

104:                                              ; preds = %94
  %105 = load i32, i32* %6, align 4
  %106 = sext i32 %105 to i64
  %107 = getelementptr inbounds [256 x i8], [256 x i8]* %13, i64 %106
  %108 = load i32, i32* %7, align 4
  %109 = sext i32 %108 to i64
  %110 = getelementptr inbounds [256 x i8], [256 x i8]* %107, i64 0, i64 %109
  store i8 67, i8* %110, align 1
  br label %111

111:                                              ; preds = %104, %94
  br label %112

112:                                              ; preds = %111, %87
  br label %113

113:                                              ; preds = %112, %70
  br label %114

114:                                              ; preds = %113, %53
  br label %115

115:                                              ; preds = %114
  %116 = load i32, i32* %7, align 4
  %117 = add nsw i32 %116, 1
  store i32 %117, i32* %7, align 4
  br label %33

118:                                              ; preds = %33
  br label %119

119:                                              ; preds = %118
  %120 = load i32, i32* %6, align 4
  %121 = add nsw i32 %120, 1
  store i32 %121, i32* %6, align 4
  br label %28

122:                                              ; preds = %28
  store i32 0, i32* %8, align 4
  br label %123

123:                                              ; preds = %133, %122
  %124 = load i32, i32* %8, align 4
  %125 = load i32, i32* %2, align 4
  %126 = icmp slt i32 %124, %125
  br i1 %126, label %127, label %136

127:                                              ; preds = %123
  %128 = load i32, i32* %8, align 4
  %129 = sext i32 %128 to i64
  %130 = getelementptr inbounds [256 x i8], [256 x i8]* %13, i64 %129
  %131 = getelementptr inbounds [256 x i8], [256 x i8]* %130, i64 0, i64 0
  %132 = call i32 @puts(i8* %131)
  br label %133

133:                                              ; preds = %127
  %134 = load i32, i32* %8, align 4
  %135 = add nsw i32 %134, 1
  store i32 %135, i32* %8, align 4
  br label %123

136:                                              ; preds = %123
  store i32 0, i32* %1, align 4
  %137 = load i8*, i8** %3, align 8
  call void @llvm.stackrestore(i8* %137)
  %138 = load i32, i32* %1, align 4
  ret i32 %138
}

declare dso_local i32 @__isoc99_scanf(i8*, ...) #1

; Function Attrs: nounwind
declare i8* @llvm.stacksave() #2

declare dso_local i32 @gets(...) #1

declare dso_local i32 @puts(i8*) #1

; Function Attrs: nounwind
declare void @llvm.stackrestore(i8*) #2


!llvm.module.flags = !{!0}
!llvm.ident = !{!1}

!0 = !{i32 1, !"wchar_size", i32 4}
!1 = !{!"clang version 10.0.0-4ubuntu1 "}
